target datalayout = "e-m:e-p270:32:32-p271:32:32-p272:64:64-i64:64-i128:128-f80:128-n8:16:32:64-S128"
target triple = "x86_64-pc-linux-gnu"

%struct.darktable_t = type { %struct.dt_codepath_t, i32, i32, ptr, ptr, ptr, ptr, ptr, ptr, ptr, ptr, ptr, ptr, ptr, ptr, ptr, ptr, ptr, ptr, ptr, ptr, ptr, ptr, ptr, ptr, ptr, ptr, ptr, ptr, ptr, [64 x %struct.dt_pthread_mutex_t], %struct.dt_pthread_mutex_t, %struct.dt_pthread_mutex_t, %struct.dt_pthread_mutex_t, %struct.dt_pthread_mutex_t, %struct.dt_pthread_mutex_t, ptr, ptr, ptr, ptr, ptr, ptr, ptr, ptr, ptr, ptr, ptr, ptr, ptr, %struct.dt_lua_state_t, ptr, double, ptr, i32, [47 x i32], i32, i32, ptr, ptr, %struct.dt_sys_resources_t, %struct.dt_backthumb_t, %struct.dt_gimp_t }
%struct.dt_codepath_t = type { i8, [3 x i8] }
%struct.dt_pthread_mutex_t = type { %union.pthread_mutex_t }
%union.pthread_mutex_t = type { %struct.__pthread_mutex_s }
%struct.__pthread_mutex_s = type { i32, i32, i32, i32, i32, i16, i16, %struct.__pthread_internal_list }
%struct.__pthread_internal_list = type { ptr, ptr }
%struct.dt_lua_state_t = type { i32 }
%struct.dt_sys_resources_t = type { i64, i64, ptr, ptr, i32 }
%struct.dt_backthumb_t = type { double, double, i32, i32, i32, i32 }
%struct.dt_gimp_t = type { i32, ptr, ptr, i32, i32 }
%struct.dt_control_image_enumerator_t = type { ptr, i32, ptr, i32 }
%struct._GList = type { ptr, ptr, ptr }
%struct.dt_control_gpx_apply_t = type { ptr, ptr }
%struct.dt_image_geoloc_t = type { double, double, double }

@darktable = external global %struct.darktable_t, align 8
@.str.48 = private unnamed_addr constant [129 x i8] c"generated/home/dtcxzyw/WorkSpace/Projects/compilers/llvm-opt-benchmark/bench/darktable/darktable/src/control/jobs/control_jobs.c\00", align 1
@.str.60 = private unnamed_addr constant [40 x i8] c"[signal] raise %s; %s:%d, function %s()\00", align 1
@.str.72 = private unnamed_addr constant [25 x i8] c"failed to parse GPX file\00", align 1
@.str.73 = private unnamed_addr constant [43 x i8] c"applied matched GPX location onto %d image\00", align 1
@.str.74 = private unnamed_addr constant [44 x i8] c"applied matched GPX location onto %d images\00", align 1
@.str.75 = private unnamed_addr constant [25 x i8] c"DT_SIGNAL_GEOTAG_CHANGED\00", align 1
@__FUNCTION__.dt_control_gpx_apply_job_run = private unnamed_addr constant [29 x i8] c"dt_control_gpx_apply_job_run\00", align 1

; Function Attrs: nounwind uwtable
define internal i32 @dt_control_gpx_apply_job_run(ptr noundef %0) #0 {
  %2 = alloca i32, align 4
  %3 = alloca ptr, align 8
  %4 = alloca ptr, align 8
  %5 = alloca ptr, align 8
  %6 = alloca ptr, align 8
  %7 = alloca i32, align 4
  %8 = alloca ptr, align 8
  %9 = alloca ptr, align 8
  %10 = alloca ptr, align 8
  %11 = alloca ptr, align 8
  %12 = alloca ptr, align 8
  %13 = alloca ptr, align 8
  %14 = alloca %struct.dt_image_geoloc_t, align 8
  %15 = alloca i32, align 4
  %16 = alloca ptr, align 8
  %17 = alloca i32, align 4
  %18 = alloca ptr, align 8
  %19 = alloca ptr, align 8
  %20 = alloca ptr, align 8
  %21 = alloca ptr, align 8
  store ptr %0, ptr %3, align 8, !tbaa !51
  call void @llvm.lifetime.start.p0(i64 8, ptr %4) #14
  %22 = load ptr, ptr %3, align 8, !tbaa !51
  %23 = call ptr @dt_control_job_get_params(ptr noundef %22)
  store ptr %23, ptr %4, align 8, !tbaa !53
  call void @llvm.lifetime.start.p0(i64 8, ptr %5) #14
  %24 = load ptr, ptr %4, align 8, !tbaa !53
  %25 = getelementptr inbounds nuw %struct.dt_control_image_enumerator_t, ptr %24, i32 0, i32 0
  %26 = load ptr, ptr %25, align 8, !tbaa !57
  store ptr %26, ptr %5, align 8, !tbaa !60
  call void @llvm.lifetime.start.p0(i64 8, ptr %6) #14
  store ptr null, ptr %6, align 8, !tbaa !256
  call void @llvm.lifetime.start.p0(i64 4, ptr %7) #14
  store i32 0, ptr %7, align 4, !tbaa !50
  call void @llvm.lifetime.start.p0(i64 8, ptr %8) #14
  %27 = load ptr, ptr %4, align 8, !tbaa !53
  %28 = getelementptr inbounds nuw %struct.dt_control_image_enumerator_t, ptr %27, i32 0, i32 2
  %29 = load ptr, ptr %28, align 8, !tbaa !59
  store ptr %29, ptr %8, align 8, !tbaa !87
  call void @llvm.lifetime.start.p0(i64 8, ptr %9) #14
  %30 = load ptr, ptr %8, align 8, !tbaa !87
  %31 = getelementptr inbounds nuw %struct.dt_control_gpx_apply_t, ptr %30, i32 0, i32 0
  %32 = load ptr, ptr %31, align 8, !tbaa !89
  store ptr %32, ptr %9, align 8, !tbaa !49
  call void @llvm.lifetime.start.p0(i64 8, ptr %10) #14
  %33 = load ptr, ptr %8, align 8, !tbaa !87
  %34 = getelementptr inbounds nuw %struct.dt_control_gpx_apply_t, ptr %33, i32 0, i32 1
  %35 = load ptr, ptr %34, align 8, !tbaa !91
  store ptr %35, ptr %10, align 8, !tbaa !49
  %36 = load ptr, ptr %5, align 8, !tbaa !60
  %37 = icmp ne ptr %36, null
  br i1 %37, label %39, label %38

38:                                               ; preds = %1
  br label %181

39:                                               ; preds = %1
  %40 = load ptr, ptr %9, align 8, !tbaa !49
  %41 = call ptr @dt_gpx_new(ptr noundef %40)
  store ptr %41, ptr %6, align 8, !tbaa !256
  %42 = load ptr, ptr %6, align 8, !tbaa !256
  %43 = icmp ne ptr %42, null
  br i1 %43, label %46, label %44

44:                                               ; preds = %39
  %45 = call ptr @dcgettext(ptr noundef null, ptr noundef @.str.72, i32 noundef 5) #14
  call void (ptr, ...) @dt_control_log(ptr noundef %45)
  br label %181

46:                                               ; preds = %39
  %47 = load ptr, ptr %10, align 8, !tbaa !49
  %48 = icmp eq ptr %47, null
  br i1 %48, label %49, label %51

49:                                               ; preds = %46
  %50 = call ptr @g_time_zone_new_utc()
  br label %54

51:                                               ; preds = %46
  %52 = load ptr, ptr %10, align 8, !tbaa !49
  %53 = call ptr @g_time_zone_new(ptr noundef %52)
  br label %54

54:                                               ; preds = %51, %49
  %55 = phi ptr [ %50, %49 ], [ %53, %51 ]
  store ptr %55, ptr %11, align 8, !tbaa !258
  %56 = load ptr, ptr %11, align 8, !tbaa !258
  %57 = icmp ne ptr %56, null
  br i1 %57, label %59, label %58

58:                                               ; preds = %54
  br label %181

59:                                               ; preds = %54
  store ptr null, ptr %12, align 8, !tbaa !60
  %60 = call ptr @g_array_new(i32 noundef 0, i32 noundef 0, i32 noundef 24)
  store ptr %60, ptr %13, align 8, !tbaa !259
  br label %61

61:                                               ; preds = %140, %59
  call void @llvm.lifetime.start.p0(i64 24, ptr %14) #14
  call void @llvm.lifetime.start.p0(i64 4, ptr %15) #14
  %62 = load ptr, ptr %5, align 8, !tbaa !60
  %63 = getelementptr inbounds nuw %struct._GList, ptr %62, i32 0, i32 0
  %64 = load ptr, ptr %63, align 8, !tbaa !70
  %65 = ptrtoint ptr %64 to i64
  %66 = trunc i64 %65 to i32
  store i32 %66, ptr %15, align 4, !tbaa !50
  call void @llvm.lifetime.start.p0(i64 8, ptr %16) #14
  %67 = load ptr, ptr getelementptr inbounds nuw (%struct.darktable_t, ptr @darktable, i32 0, i32 16), align 8, !tbaa !93
  %68 = load i32, ptr %15, align 4, !tbaa !50
  %69 = call ptr @dt_image_cache_get(ptr noundef %67, i32 noundef %68, i8 noundef signext 114)
  store ptr %69, ptr %16, align 8, !tbaa !109
  %70 = load ptr, ptr %16, align 8, !tbaa !109
  %71 = icmp ne ptr %70, null
  br i1 %71, label %73, label %72

72:                                               ; preds = %61
  store i32 4, ptr %17, align 4
  br label %129

73:                                               ; preds = %61
  call void @llvm.lifetime.start.p0(i64 8, ptr %18) #14
  %74 = load ptr, ptr %16, align 8, !tbaa !109
  %75 = load ptr, ptr %11, align 8, !tbaa !258
  %76 = call ptr @dt_datetime_img_to_gdatetime(ptr noundef %74, ptr noundef %75)
  store ptr %76, ptr %18, align 8, !tbaa !261
  %77 = load ptr, ptr getelementptr inbounds nuw (%struct.darktable_t, ptr @darktable, i32 0, i32 16), align 8, !tbaa !93
  %78 = load ptr, ptr %16, align 8, !tbaa !109
  call void @dt_image_cache_read_release(ptr noundef %77, ptr noundef %78)
  %79 = load ptr, ptr %18, align 8, !tbaa !261
  %80 = icmp ne ptr %79, null
  br i1 %80, label %82, label %81

81:                                               ; preds = %73
  store i32 4, ptr %17, align 4
  br label %128

82:                                               ; preds = %73
  call void @llvm.lifetime.start.p0(i64 8, ptr %19) #14
  %83 = load ptr, ptr %18, align 8, !tbaa !261
  %84 = load ptr, ptr getelementptr inbounds nuw (%struct.darktable_t, ptr @darktable, i32 0, i32 57), align 8, !tbaa !262
  %85 = call ptr @g_date_time_to_timezone(ptr noundef %83, ptr noundef %84)
  store ptr %85, ptr %19, align 8, !tbaa !261
  %86 = load ptr, ptr %18, align 8, !tbaa !261
  call void @g_date_time_unref(ptr noundef %86)
  %87 = load ptr, ptr %19, align 8, !tbaa !261
  %88 = icmp ne ptr %87, null
  br i1 %88, label %90, label %89

89:                                               ; preds = %82
  store i32 4, ptr %17, align 4
  br label %127

90:                                               ; preds = %82
  %91 = load ptr, ptr %6, align 8, !tbaa !256
  %92 = load ptr, ptr %19, align 8, !tbaa !261
  %93 = call i32 @dt_gpx_get_location(ptr noundef %91, ptr noundef %92, ptr noundef %14)
  %94 = icmp ne i32 %93, 0
  br i1 %94, label %95, label %125

95:                                               ; preds = %90
  call void @llvm.lifetime.start.p0(i64 8, ptr %20) #14
  %96 = load i32, ptr %15, align 4, !tbaa !50
  %97 = call ptr @dt_grouping_get_group_images(i32 noundef %96)
  store ptr %97, ptr %20, align 8, !tbaa !60
  call void @llvm.lifetime.start.p0(i64 8, ptr %21) #14
  %98 = load ptr, ptr %20, align 8, !tbaa !60
  store ptr %98, ptr %21, align 8, !tbaa !60
  br label %99

99:                                               ; preds = %121, %95
  %100 = load ptr, ptr %21, align 8, !tbaa !60
  %101 = icmp ne ptr %100, null
  br i1 %101, label %103, label %102

102:                                              ; preds = %99
  store i32 5, ptr %17, align 4
  call void @llvm.lifetime.end.p0(i64 8, ptr %21) #14
  br label %123

103:                                              ; preds = %99
  %104 = load ptr, ptr %12, align 8, !tbaa !60
  %105 = load ptr, ptr %21, align 8, !tbaa !60
  %106 = getelementptr inbounds nuw %struct._GList, ptr %105, i32 0, i32 0
  %107 = load ptr, ptr %106, align 8, !tbaa !70
  %108 = call ptr @g_list_prepend(ptr noundef %104, ptr noundef %107)
  store ptr %108, ptr %12, align 8, !tbaa !60
  %109 = load ptr, ptr %13, align 8, !tbaa !259
  %110 = call ptr @g_array_append_vals(ptr noundef %109, ptr noundef %14, i32 noundef 1)
  %111 = load i32, ptr %7, align 4, !tbaa !50
  %112 = add i32 %111, 1
  store i32 %112, ptr %7, align 4, !tbaa !50
  br label %113

113:                                              ; preds = %103
  %114 = load ptr, ptr %21, align 8, !tbaa !60
  %115 = icmp ne ptr %114, null
  br i1 %115, label %116, label %120

116:                                              ; preds = %113
  %117 = load ptr, ptr %21, align 8, !tbaa !60
  %118 = getelementptr inbounds nuw %struct._GList, ptr %117, i32 0, i32 1
  %119 = load ptr, ptr %118, align 8, !tbaa !72
  br label %121

120:                                              ; preds = %113
  br label %121

121:                                              ; preds = %120, %116
  %122 = phi ptr [ %119, %116 ], [ null, %120 ]
  store ptr %122, ptr %21, align 8, !tbaa !60
  br label %99

123:                                              ; preds = %102
  %124 = load ptr, ptr %20, align 8, !tbaa !60
  call void @g_list_free(ptr noundef %124)
  call void @llvm.lifetime.end.p0(i64 8, ptr %20) #14
  br label %125

125:                                              ; preds = %123, %90
  %126 = load ptr, ptr %19, align 8, !tbaa !261
  call void @g_date_time_unref(ptr noundef %126)
  store i32 0, ptr %17, align 4
  br label %127

127:                                              ; preds = %125, %89
  call void @llvm.lifetime.end.p0(i64 8, ptr %19) #14
  br label %128

128:                                              ; preds = %127, %81
  call void @llvm.lifetime.end.p0(i64 8, ptr %18) #14
  br label %129

129:                                              ; preds = %128, %72
  call void @llvm.lifetime.end.p0(i64 8, ptr %16) #14
  call void @llvm.lifetime.end.p0(i64 4, ptr %15) #14
  call void @llvm.lifetime.end.p0(i64 24, ptr %14) #14
  %130 = load i32, ptr %17, align 4
  switch i32 %130, label %189 [
    i32 0, label %131
    i32 4, label %132
  ]

131:                                              ; preds = %129
  br label %132

132:                                              ; preds = %131, %129
  %133 = load ptr, ptr %5, align 8, !tbaa !60
  %134 = icmp ne ptr %133, null
  br i1 %134, label %135, label %139

135:                                              ; preds = %132
  %136 = load ptr, ptr %5, align 8, !tbaa !60
  %137 = getelementptr inbounds nuw %struct._GList, ptr %136, i32 0, i32 1
  %138 = load ptr, ptr %137, align 8, !tbaa !72
  br label %140

139:                                              ; preds = %132
  br label %140

140:                                              ; preds = %139, %135
  %141 = phi ptr [ %138, %135 ], [ null, %139 ]
  store ptr %141, ptr %5, align 8, !tbaa !60
  %142 = icmp ne ptr %141, null
  br i1 %142, label %61, label %143

143:                                              ; preds = %140
  %144 = load ptr, ptr %12, align 8, !tbaa !60
  %145 = call ptr @g_list_reverse(ptr noundef %144)
  store ptr %145, ptr %12, align 8, !tbaa !60
  %146 = load ptr, ptr %12, align 8, !tbaa !60
  %147 = load ptr, ptr %13, align 8, !tbaa !259
  call void @dt_image_set_images_locations(ptr noundef %146, ptr noundef %147, i32 noundef 1)
  %148 = load i32, ptr %7, align 4, !tbaa !50
  %149 = zext i32 %148 to i64
  %150 = call ptr @dcngettext(ptr noundef null, ptr noundef @.str.73, ptr noundef @.str.74, i64 noundef %149, i32 noundef 5) #14
  %151 = load i32, ptr %7, align 4, !tbaa !50
  call void (ptr, ...) @dt_control_log(ptr noundef %150, i32 noundef %151)
  %152 = load ptr, ptr %11, align 8, !tbaa !258
  call void @g_time_zone_unref(ptr noundef %152)
  %153 = load ptr, ptr %6, align 8, !tbaa !256
  call void @dt_gpx_destroy(ptr noundef %153)
  %154 = load ptr, ptr %13, align 8, !tbaa !259
  call void @g_array_unref(ptr noundef %154)
  br label %155

155:                                              ; preds = %143
  %156 = load i32, ptr getelementptr inbounds nuw (%struct.darktable_t, ptr @darktable, i32 0, i32 53), align 8, !tbaa !84
  %157 = and i32 %156, 1
  %158 = icmp ne i32 %157, 0
  br i1 %158, label %159, label %176

159:                                              ; preds = %155
  %160 = load i32, ptr getelementptr inbounds ([47 x i32], ptr getelementptr inbounds nuw (%struct.darktable_t, ptr @darktable, i32 0, i32 54), i64 0, i64 10), align 4, !tbaa !50
  %161 = icmp ne i32 %160, 0
  br i1 %161, label %162, label %176

162:                                              ; preds = %159
  br label %163

163:                                              ; preds = %162
  %164 = load i32, ptr getelementptr inbounds nuw (%struct.darktable_t, ptr @darktable, i32 0, i32 2), align 8, !tbaa !85
  %165 = and i32 1048576, %164
  %166 = icmp ne i32 %165, 0
  br i1 %166, label %167, label %173

167:                                              ; preds = %163
  %168 = load i32, ptr getelementptr inbounds nuw (%struct.darktable_t, ptr @darktable, i32 0, i32 2), align 8, !tbaa !85
  %169 = xor i32 %168, -1
  %170 = and i32 0, %169
  %171 = icmp ne i32 %170, 0
  br i1 %171, label %173, label %172

172:                                              ; preds = %167
  call void (ptr, ...) @dt_print_ext(ptr noundef @.str.60, ptr noundef @.str.75, ptr noundef @.str.48, i32 noundef 1436, ptr noundef @__FUNCTION__.dt_control_gpx_apply_job_run)
  br label %173

173:                                              ; preds = %172, %167, %163
  br label %174

174:                                              ; preds = %173
  br label %175

175:                                              ; preds = %174
  br label %176

176:                                              ; preds = %175, %159, %155
  %177 = load ptr, ptr getelementptr inbounds nuw (%struct.darktable_t, ptr @darktable, i32 0, i32 13), align 8, !tbaa !86
  %178 = load ptr, ptr %12, align 8, !tbaa !60
  call void (ptr, i32, ...) @dt_control_signal_raise(ptr noundef %177, i32 noundef 10, ptr noundef %178, i32 noundef 0)
  br label %179

179:                                              ; preds = %176
  br label %180

180:                                              ; preds = %179
  store i32 0, ptr %2, align 4
  store i32 1, ptr %17, align 4
  br label %187

181:                                              ; preds = %58, %44, %38
  %182 = load ptr, ptr %6, align 8, !tbaa !256
  %183 = icmp ne ptr %182, null
  br i1 %183, label %184, label %186

184:                                              ; preds = %181
  %185 = load ptr, ptr %6, align 8, !tbaa !256
  call void @dt_gpx_destroy(ptr noundef %185)
  br label %186

186:                                              ; preds = %184, %181
  store i32 1, ptr %2, align 4
  store i32 1, ptr %17, align 4
  br label %187

187:                                              ; preds = %186, %180
  call void @llvm.lifetime.end.p0(i64 8, ptr %10) #14
  call void @llvm.lifetime.end.p0(i64 8, ptr %9) #14
  call void @llvm.lifetime.end.p0(i64 8, ptr %8) #14
  call void @llvm.lifetime.end.p0(i64 4, ptr %7) #14
  call void @llvm.lifetime.end.p0(i64 8, ptr %6) #14
  call void @llvm.lifetime.end.p0(i64 8, ptr %5) #14
  call void @llvm.lifetime.end.p0(i64 8, ptr %4) #14
  %188 = load i32, ptr %2, align 4
  ret i32 %188

189:                                              ; preds = %129
  unreachable
}