; Function Attrs: nounwind uwtable
define internal range(i32 0, 2) i32 @dt_control_gpx_apply_job_run(ptr noundef %0) #0 {
  %2 = alloca %struct.dt_image_geoloc_t, align 8
  %3 = tail call ptr @dt_control_job_get_params(ptr noundef %0) #17
  %4 = load ptr, ptr %3, align 8, !tbaa !50
  %5 = getelementptr inbounds nuw i8, ptr %3, i64 16
  %6 = load ptr, ptr %5, align 8, !tbaa !52
  %7 = getelementptr inbounds nuw i8, ptr %6, i64 8
  %8 = load ptr, ptr %7, align 8, !tbaa !86
  %.not = icmp eq ptr %4, null
  br i1 %.not, label %.thread, label %9

9:                                                ; preds = %1
  %10 = load ptr, ptr %6, align 8, !tbaa !84
  %11 = tail call ptr @dt_gpx_new(ptr noundef %10) #17
  %.not67 = icmp eq ptr %11, null
  br i1 %.not67, label %12, label %14

12:                                               ; preds = %9
  %13 = tail call ptr @dcgettext(ptr noundef null, ptr noundef nonnull @.str.72, i32 noundef 5) #17
  tail call void (ptr, ...) @dt_control_log(ptr noundef %13) #17
  br label %.thread

14:                                               ; preds = %9
  %15 = icmp eq ptr %8, null
  br i1 %15, label %16, label %18

16:                                               ; preds = %14
  %17 = tail call ptr @g_time_zone_new_utc() #17
  br label %20

18:                                               ; preds = %14
  %19 = tail call ptr @g_time_zone_new(ptr noundef nonnull %8) #17
  br label %20

20:                                               ; preds = %18, %16
  %21 = phi ptr [ %17, %16 ], [ %19, %18 ]
  %.not68 = icmp eq ptr %21, null
  br i1 %.not68, label %65, label %22

22:                                               ; preds = %20
  %23 = tail call ptr @g_array_new(i32 noundef 0, i32 noundef 0, i32 noundef 24) #17
  br label %24

24:                                               ; preds = %47, %22
  %.052 = phi ptr [ null, %22 ], [ %.153, %47 ]
  %.051 = phi i32 [ 0, %22 ], [ %.1, %47 ]
  %.049 = phi ptr [ %4, %22 ], [ %49, %47 ]
  call void @llvm.lifetime.start.p0(i64 24, ptr nonnull %2) #17
  %25 = load ptr, ptr %.049, align 8, !tbaa !61
  %26 = ptrtoint ptr %25 to i64
  %27 = trunc i64 %26 to i32
  %28 = load ptr, ptr getelementptr inbounds nuw (i8, ptr @darktable, i64 120), align 8, !tbaa !91
  %29 = call ptr @dt_image_cache_get(ptr noundef %28, i32 noundef %27, i8 noundef signext 114) #17
  %.not70 = icmp eq ptr %29, null
  br i1 %.not70, label %47, label %30

30:                                               ; preds = %24
  %31 = call ptr @dt_datetime_img_to_gdatetime(ptr noundef nonnull %29, ptr noundef nonnull %21) #17
  %32 = load ptr, ptr getelementptr inbounds nuw (i8, ptr @darktable, i64 120), align 8, !tbaa !91
  call void @dt_image_cache_read_release(ptr noundef %32, ptr noundef nonnull %29) #17
  %.not71 = icmp eq ptr %31, null
  br i1 %.not71, label %47, label %33

33:                                               ; preds = %30
  %34 = load ptr, ptr getelementptr inbounds nuw (i8, ptr @darktable, i64 3328), align 8, !tbaa !223
  %35 = call ptr @g_date_time_to_timezone(ptr noundef nonnull %31, ptr noundef %34) #17
  call void @g_date_time_unref(ptr noundef nonnull %31) #17
  %.not72 = icmp eq ptr %35, null
  br i1 %.not72, label %47, label %36

36:                                               ; preds = %33
  %37 = call i32 @dt_gpx_get_location(ptr noundef nonnull %11, ptr noundef nonnull %35, ptr noundef nonnull %2) #17
  %.not73 = icmp eq i32 %37, 0
  br i1 %.not73, label %46, label %38

38:                                               ; preds = %36
  %39 = call ptr @dt_grouping_get_group_images(i32 noundef %27) #17
  %.not7479 = icmp eq ptr %39, null
  br i1 %.not7479, label %._crit_edge, label %.lr.ph

._crit_edge:                                      ; preds = %.lr.ph, %38
  %.557.lcssa = phi ptr [ %.052, %38 ], [ %41, %.lr.ph ]
  %.5.lcssa = phi i32 [ %.051, %38 ], [ %43, %.lr.ph ]
  call void @g_list_free(ptr noundef %39) #17
  br label %46

.lr.ph:                                           ; preds = %38, %.lr.ph
  %.082 = phi ptr [ %45, %.lr.ph ], [ %39, %38 ]
  %.581 = phi i32 [ %43, %.lr.ph ], [ %.051, %38 ]
  %.55780 = phi ptr [ %41, %.lr.ph ], [ %.052, %38 ]
  %40 = load ptr, ptr %.082, align 8, !tbaa !61
  %41 = call ptr @g_list_prepend(ptr noundef %.55780, ptr noundef %40) #17
  %42 = call ptr @g_array_append_vals(ptr noundef %23, ptr noundef nonnull %2, i32 noundef 1) #17
  %43 = add i32 %.581, 1
  %44 = getelementptr inbounds nuw i8, ptr %.082, i64 8
  %45 = load ptr, ptr %44, align 8, !tbaa !63
  %.not74 = icmp eq ptr %45, null
  br i1 %.not74, label %._crit_edge, label %.lr.ph

46:                                               ; preds = %._crit_edge, %36
  %.456 = phi ptr [ %.557.lcssa, %._crit_edge ], [ %.052, %36 ]
  %.4 = phi i32 [ %.5.lcssa, %._crit_edge ], [ %.051, %36 ]
  call void @g_date_time_unref(ptr noundef nonnull %35) #17
  br label %47

47:                                               ; preds = %30, %33, %46, %24
  %.153 = phi ptr [ %.052, %24 ], [ %.052, %30 ], [ %.456, %46 ], [ %.052, %33 ]
  %.1 = phi i32 [ %.051, %24 ], [ %.051, %30 ], [ %.4, %46 ], [ %.051, %33 ]
  call void @llvm.lifetime.end.p0(i64 24, ptr nonnull %2) #17
  %48 = getelementptr inbounds nuw i8, ptr %.049, i64 8
  %49 = load ptr, ptr %48, align 8, !tbaa !63
  %.not75 = icmp eq ptr %49, null
  br i1 %.not75, label %50, label %24

50:                                               ; preds = %47
  %51 = call ptr @g_list_reverse(ptr noundef %.153) #17
  call void @dt_image_set_images_locations(ptr noundef %51, ptr noundef %23, i32 noundef 1) #17
  %52 = zext i32 %.1 to i64
  %53 = call ptr @dcngettext(ptr noundef null, ptr noundef nonnull @.str.73, ptr noundef nonnull @.str.74, i64 noundef %52, i32 noundef 5) #17
  call void (ptr, ...) @dt_control_log(ptr noundef %53, i32 noundef %.1) #17
  call void @g_time_zone_unref(ptr noundef nonnull %21) #17
  call void @dt_gpx_destroy(ptr noundef nonnull %11) #17
  call void @g_array_unref(ptr noundef %23) #17
  %54 = load i32, ptr getelementptr inbounds nuw (i8, ptr @darktable, i64 3128), align 8, !tbaa !76
  %55 = and i32 %54, 1
  %56 = icmp ne i32 %55, 0
  %57 = load i32, ptr getelementptr inbounds nuw (i8, ptr @darktable, i64 3172), align 4
  %58 = icmp ne i32 %57, 0
  %or.cond = select i1 %56, i1 %58, i1 false
  br i1 %or.cond, label %59, label %63

59:                                               ; preds = %50
  %60 = load i32, ptr getelementptr inbounds nuw (i8, ptr @darktable, i64 8), align 8, !tbaa !77
  %61 = and i32 %60, 1048576
  %.not76 = icmp eq i32 %61, 0
  br i1 %.not76, label %63, label %62

62:                                               ; preds = %59
  call void (ptr, ...) @dt_print_ext(ptr noundef nonnull @.str.60, ptr noundef nonnull @.str.75, ptr noundef nonnull @.str.48, i32 noundef 1436, ptr noundef nonnull @__FUNCTION__.dt_control_gpx_apply_job_run) #17
  br label %63

63:                                               ; preds = %59, %62, %50
  %64 = load ptr, ptr getelementptr inbounds nuw (i8, ptr @darktable, i64 96), align 8, !tbaa !78
  call void (ptr, i32, ...) @dt_control_signal_raise(ptr noundef %64, i32 noundef 10, ptr noundef %51, i32 noundef 0) #17
  br label %.thread

65:                                               ; preds = %20
  tail call void @dt_gpx_destroy(ptr noundef nonnull %11) #17
  br label %.thread

.thread:                                          ; preds = %1, %12, %65, %63
  %.048 = phi i32 [ 0, %63 ], [ 1, %65 ], [ 1, %12 ], [ 1, %1 ]
  ret i32 %.048
}